target datalayout = "e-m:e-p270:32:32-p271:32:32-p272:64:64-i64:64-i128:128-f80:128-n8:16:32:64-S128"
target triple = "x86_64-pc-linux-gnu"

%struct.H5S_t = type { %struct.H5S_extent_t, %struct.H5S_select_t }
%struct.H5S_extent_t = type { %struct.H5O_shared_t, i32, i32, i64, i32, ptr, ptr }
%struct.H5O_shared_t = type { i32, ptr, i32, %union.anon }
%union.anon = type { %struct.H5O_mesg_loc_t }
%struct.H5O_mesg_loc_t = type { i32, i64 }
%struct.H5S_select_t = type { ptr, i8, [32 x i64], i64, %union.anon.0 }
%union.anon.0 = type { ptr }

@H5S_init_g = external global i8, align 1
@H5_libterm_g = external global i8, align 1

; Function Attrs: nounwind uwtable
define internal i32 @H5S__point_is_contiguous(ptr noundef %0) #0 {
  %2 = alloca ptr, align 8
  %3 = alloca i32, align 4
  store ptr %0, ptr %2, align 8, !tbaa !3
  call void @llvm.lifetime.start.p0(i64 4, ptr %3) #7
  store i32 -1, ptr %3, align 4, !tbaa !10
  %4 = load i8, ptr @H5S_init_g, align 1, !tbaa !8, !range !12, !noundef !13
  %5 = trunc i8 %4 to i1
  br i1 %5, label %10, label %6

6:                                                ; preds = %1
  %7 = load i8, ptr @H5_libterm_g, align 1, !tbaa !8, !range !12, !noundef !13
  %8 = trunc i8 %7 to i1
  %9 = xor i1 %8, true
  br label %10

10:                                               ; preds = %6, %1
  %11 = phi i1 [ true, %1 ], [ %9, %6 ]
  %12 = xor i1 %11, true
  %13 = xor i1 %12, true
  %14 = zext i1 %13 to i32
  %15 = sext i32 %14 to i64
  %16 = call i64 @llvm.expect.i64(i64 %15, i64 1)
  %17 = icmp ne i64 %16, 0
  br i1 %17, label %18, label %27

18:                                               ; preds = %10
  %19 = load ptr, ptr %2, align 8, !tbaa !3
  %20 = getelementptr inbounds nuw %struct.H5S_t, ptr %19, i32 0, i32 1
  %21 = getelementptr inbounds nuw %struct.H5S_select_t, ptr %20, i32 0, i32 3
  %22 = load i64, ptr %21, align 8, !tbaa !24
  %23 = icmp eq i64 %22, 1
  br i1 %23, label %24, label %25

24:                                               ; preds = %18
  store i32 1, ptr %3, align 4, !tbaa !10
  br label %26

25:                                               ; preds = %18
  store i32 0, ptr %3, align 4, !tbaa !10
  br label %26

26:                                               ; preds = %25, %24
  br label %27

27:                                               ; preds = %26, %10
  %28 = load i32, ptr %3, align 4, !tbaa !10
  call void @llvm.lifetime.end.p0(i64 4, ptr %3) #7
  ret i32 %28
}